target datalayout = "e-m:e-p270:32:32-p271:32:32-p272:64:64-i64:64-i128:128-f80:128-n8:16:32:64-S128"
target triple = "x86_64-pc-linux-gnu"

%struct.AF_WidthRec_ = type { i64, i64, i64 }

; Function Attrs: nounwind uwtable
define internal void @af_sort_and_quantize_widths(ptr noundef %0, ptr noundef %1, i64 noundef %2) #0 {
  %4 = alloca ptr, align 8
  %5 = alloca ptr, align 8
  %6 = alloca i64, align 8
  %7 = alloca i32, align 4
  %8 = alloca i32, align 4
  %9 = alloca i32, align 4
  %10 = alloca i64, align 8
  %11 = alloca i64, align 8
  %12 = alloca %struct.AF_WidthRec_, align 8
  %13 = alloca i32, align 4
  store ptr %0, ptr %4, align 8, !tbaa !135
  store ptr %1, ptr %5, align 8, !tbaa !287
  store i64 %2, ptr %6, align 8, !tbaa !42
  call void @llvm.lifetime.start.p0(i64 4, ptr %7) #10
  call void @llvm.lifetime.start.p0(i64 4, ptr %8) #10
  call void @llvm.lifetime.start.p0(i64 4, ptr %9) #10
  call void @llvm.lifetime.start.p0(i64 8, ptr %10) #10
  call void @llvm.lifetime.start.p0(i64 8, ptr %11) #10
  call void @llvm.lifetime.start.p0(i64 24, ptr %12) #10
  %14 = load ptr, ptr %4, align 8, !tbaa !135
  %15 = load i32, ptr %14, align 4, !tbaa !43
  %16 = icmp eq i32 %15, 1
  br i1 %16, label %17, label %18

17:                                               ; preds = %3
  store i32 1, ptr %13, align 4
  br label %203

18:                                               ; preds = %3
  store i32 1, ptr %7, align 4, !tbaa !43
  br label %19

19:                                               ; preds = %68, %18
  %20 = load i32, ptr %7, align 4, !tbaa !43
  %21 = load ptr, ptr %4, align 8, !tbaa !135
  %22 = load i32, ptr %21, align 4, !tbaa !43
  %23 = icmp ult i32 %20, %22
  br i1 %23, label %24, label %71

24:                                               ; preds = %19
  %25 = load i32, ptr %7, align 4, !tbaa !43
  store i32 %25, ptr %8, align 4, !tbaa !43
  br label %26

26:                                               ; preds = %64, %24
  %27 = load i32, ptr %8, align 4, !tbaa !43
  %28 = icmp ugt i32 %27, 0
  br i1 %28, label %29, label %67

29:                                               ; preds = %26
  %30 = load ptr, ptr %5, align 8, !tbaa !287
  %31 = load i32, ptr %8, align 4, !tbaa !43
  %32 = zext i32 %31 to i64
  %33 = getelementptr inbounds nuw %struct.AF_WidthRec_, ptr %30, i64 %32
  %34 = getelementptr inbounds nuw %struct.AF_WidthRec_, ptr %33, i32 0, i32 0
  %35 = load i64, ptr %34, align 8, !tbaa !204
  %36 = load ptr, ptr %5, align 8, !tbaa !287
  %37 = load i32, ptr %8, align 4, !tbaa !43
  %38 = sub i32 %37, 1
  %39 = zext i32 %38 to i64
  %40 = getelementptr inbounds nuw %struct.AF_WidthRec_, ptr %36, i64 %39
  %41 = getelementptr inbounds nuw %struct.AF_WidthRec_, ptr %40, i32 0, i32 0
  %42 = load i64, ptr %41, align 8, !tbaa !204
  %43 = icmp sge i64 %35, %42
  br i1 %43, label %44, label %45

44:                                               ; preds = %29
  br label %67

45:                                               ; preds = %29
  %46 = load ptr, ptr %5, align 8, !tbaa !287
  %47 = load i32, ptr %8, align 4, !tbaa !43
  %48 = zext i32 %47 to i64
  %49 = getelementptr inbounds nuw %struct.AF_WidthRec_, ptr %46, i64 %48
  call void @llvm.memcpy.p0.p0.i64(ptr align 8 %12, ptr align 8 %49, i64 24, i1 false), !tbaa.struct !293
  %50 = load ptr, ptr %5, align 8, !tbaa !287
  %51 = load i32, ptr %8, align 4, !tbaa !43
  %52 = zext i32 %51 to i64
  %53 = getelementptr inbounds nuw %struct.AF_WidthRec_, ptr %50, i64 %52
  %54 = load ptr, ptr %5, align 8, !tbaa !287
  %55 = load i32, ptr %8, align 4, !tbaa !43
  %56 = sub i32 %55, 1
  %57 = zext i32 %56 to i64
  %58 = getelementptr inbounds nuw %struct.AF_WidthRec_, ptr %54, i64 %57
  call void @llvm.memcpy.p0.p0.i64(ptr align 8 %53, ptr align 8 %58, i64 24, i1 false), !tbaa.struct !293
  %59 = load ptr, ptr %5, align 8, !tbaa !287
  %60 = load i32, ptr %8, align 4, !tbaa !43
  %61 = sub i32 %60, 1
  %62 = zext i32 %61 to i64
  %63 = getelementptr inbounds nuw %struct.AF_WidthRec_, ptr %59, i64 %62
  call void @llvm.memcpy.p0.p0.i64(ptr align 8 %63, ptr align 8 %12, i64 24, i1 false), !tbaa.struct !293
  br label %64

64:                                               ; preds = %45
  %65 = load i32, ptr %8, align 4, !tbaa !43
  %66 = add i32 %65, -1
  store i32 %66, ptr %8, align 4, !tbaa !43
  br label %26, !llvm.loop !294

67:                                               ; preds = %44, %26
  br label %68

68:                                               ; preds = %67
  %69 = load i32, ptr %7, align 4, !tbaa !43
  %70 = add i32 %69, 1
  store i32 %70, ptr %7, align 4, !tbaa !43
  br label %19, !llvm.loop !295

71:                                               ; preds = %19
  store i32 0, ptr %9, align 4, !tbaa !43
  %72 = load ptr, ptr %5, align 8, !tbaa !287
  %73 = load i32, ptr %9, align 4, !tbaa !43
  %74 = zext i32 %73 to i64
  %75 = getelementptr inbounds nuw %struct.AF_WidthRec_, ptr %72, i64 %74
  %76 = getelementptr inbounds nuw %struct.AF_WidthRec_, ptr %75, i32 0, i32 0
  %77 = load i64, ptr %76, align 8, !tbaa !204
  store i64 %77, ptr %10, align 8, !tbaa !42
  store i32 1, ptr %7, align 4, !tbaa !43
  br label %78

78:                                               ; preds = %169, %71
  %79 = load i32, ptr %7, align 4, !tbaa !43
  %80 = load ptr, ptr %4, align 8, !tbaa !135
  %81 = load i32, ptr %80, align 4, !tbaa !43
  %82 = icmp ult i32 %79, %81
  br i1 %82, label %83, label %172

83:                                               ; preds = %78
  %84 = load ptr, ptr %5, align 8, !tbaa !287
  %85 = load i32, ptr %7, align 4, !tbaa !43
  %86 = zext i32 %85 to i64
  %87 = getelementptr inbounds nuw %struct.AF_WidthRec_, ptr %84, i64 %86
  %88 = getelementptr inbounds nuw %struct.AF_WidthRec_, ptr %87, i32 0, i32 0
  %89 = load i64, ptr %88, align 8, !tbaa !204
  %90 = load i64, ptr %10, align 8, !tbaa !42
  %91 = sub nsw i64 %89, %90
  %92 = load i64, ptr %6, align 8, !tbaa !42
  %93 = icmp sgt i64 %91, %92
  br i1 %93, label %100, label %94

94:                                               ; preds = %83
  %95 = load i32, ptr %7, align 4, !tbaa !43
  %96 = load ptr, ptr %4, align 8, !tbaa !135
  %97 = load i32, ptr %96, align 4, !tbaa !43
  %98 = sub i32 %97, 1
  %99 = icmp eq i32 %95, %98
  br i1 %99, label %100, label %168

100:                                              ; preds = %94, %83
  store i64 0, ptr %11, align 8, !tbaa !42
  %101 = load ptr, ptr %5, align 8, !tbaa !287
  %102 = load i32, ptr %7, align 4, !tbaa !43
  %103 = zext i32 %102 to i64
  %104 = getelementptr inbounds nuw %struct.AF_WidthRec_, ptr %101, i64 %103
  %105 = getelementptr inbounds nuw %struct.AF_WidthRec_, ptr %104, i32 0, i32 0
  %106 = load i64, ptr %105, align 8, !tbaa !204
  %107 = load i64, ptr %10, align 8, !tbaa !42
  %108 = sub nsw i64 %106, %107
  %109 = load i64, ptr %6, align 8, !tbaa !42
  %110 = icmp sle i64 %108, %109
  br i1 %110, label %111, label %120

111:                                              ; preds = %100
  %112 = load i32, ptr %7, align 4, !tbaa !43
  %113 = load ptr, ptr %4, align 8, !tbaa !135
  %114 = load i32, ptr %113, align 4, !tbaa !43
  %115 = sub i32 %114, 1
  %116 = icmp eq i32 %112, %115
  br i1 %116, label %117, label %120

117:                                              ; preds = %111
  %118 = load i32, ptr %7, align 4, !tbaa !43
  %119 = add i32 %118, 1
  store i32 %119, ptr %7, align 4, !tbaa !43
  br label %120

120:                                              ; preds = %117, %111, %100
  %121 = load i32, ptr %9, align 4, !tbaa !43
  store i32 %121, ptr %8, align 4, !tbaa !43
  br label %122

122:                                              ; preds = %140, %120
  %123 = load i32, ptr %8, align 4, !tbaa !43
  %124 = load i32, ptr %7, align 4, !tbaa !43
  %125 = icmp ult i32 %123, %124
  br i1 %125, label %126, label %143

126:                                              ; preds = %122
  %127 = load ptr, ptr %5, align 8, !tbaa !287
  %128 = load i32, ptr %8, align 4, !tbaa !43
  %129 = zext i32 %128 to i64
  %130 = getelementptr inbounds nuw %struct.AF_WidthRec_, ptr %127, i64 %129
  %131 = getelementptr inbounds nuw %struct.AF_WidthRec_, ptr %130, i32 0, i32 0
  %132 = load i64, ptr %131, align 8, !tbaa !204
  %133 = load i64, ptr %11, align 8, !tbaa !42
  %134 = add nsw i64 %133, %132
  store i64 %134, ptr %11, align 8, !tbaa !42
  %135 = load ptr, ptr %5, align 8, !tbaa !287
  %136 = load i32, ptr %8, align 4, !tbaa !43
  %137 = zext i32 %136 to i64
  %138 = getelementptr inbounds nuw %struct.AF_WidthRec_, ptr %135, i64 %137
  %139 = getelementptr inbounds nuw %struct.AF_WidthRec_, ptr %138, i32 0, i32 0
  store i64 0, ptr %139, align 8, !tbaa !204
  br label %140

140:                                              ; preds = %126
  %141 = load i32, ptr %8, align 4, !tbaa !43
  %142 = add i32 %141, 1
  store i32 %142, ptr %8, align 4, !tbaa !43
  br label %122, !llvm.loop !296

143:                                              ; preds = %122
  %144 = load i64, ptr %11, align 8, !tbaa !42
  %145 = load i32, ptr %8, align 4, !tbaa !43
  %146 = zext i32 %145 to i64
  %147 = sdiv i64 %144, %146
  %148 = load ptr, ptr %5, align 8, !tbaa !287
  %149 = load i32, ptr %9, align 4, !tbaa !43
  %150 = zext i32 %149 to i64
  %151 = getelementptr inbounds nuw %struct.AF_WidthRec_, ptr %148, i64 %150
  %152 = getelementptr inbounds nuw %struct.AF_WidthRec_, ptr %151, i32 0, i32 0
  store i64 %147, ptr %152, align 8, !tbaa !204
  %153 = load i32, ptr %7, align 4, !tbaa !43
  %154 = load ptr, ptr %4, align 8, !tbaa !135
  %155 = load i32, ptr %154, align 4, !tbaa !43
  %156 = sub i32 %155, 1
  %157 = icmp ult i32 %153, %156
  br i1 %157, label %158, label %167

158:                                              ; preds = %143
  %159 = load i32, ptr %7, align 4, !tbaa !43
  %160 = add i32 %159, 1
  store i32 %160, ptr %9, align 4, !tbaa !43
  %161 = load ptr, ptr %5, align 8, !tbaa !287
  %162 = load i32, ptr %9, align 4, !tbaa !43
  %163 = zext i32 %162 to i64
  %164 = getelementptr inbounds nuw %struct.AF_WidthRec_, ptr %161, i64 %163
  %165 = getelementptr inbounds nuw %struct.AF_WidthRec_, ptr %164, i32 0, i32 0
  %166 = load i64, ptr %165, align 8, !tbaa !204
  store i64 %166, ptr %10, align 8, !tbaa !42
  br label %167

167:                                              ; preds = %158, %143
  br label %168

168:                                              ; preds = %167, %94
  br label %169

169:                                              ; preds = %168
  %170 = load i32, ptr %7, align 4, !tbaa !43
  %171 = add i32 %170, 1
  store i32 %171, ptr %7, align 4, !tbaa !43
  br label %78, !llvm.loop !297

172:                                              ; preds = %78
  store i32 1, ptr %9, align 4, !tbaa !43
  store i32 1, ptr %7, align 4, !tbaa !43
  br label %173

173:                                              ; preds = %197, %172
  %174 = load i32, ptr %7, align 4, !tbaa !43
  %175 = load ptr, ptr %4, align 8, !tbaa !135
  %176 = load i32, ptr %175, align 4, !tbaa !43
  %177 = icmp ult i32 %174, %176
  br i1 %177, label %178, label %200

178:                                              ; preds = %173
  %179 = load ptr, ptr %5, align 8, !tbaa !287
  %180 = load i32, ptr %7, align 4, !tbaa !43
  %181 = zext i32 %180 to i64
  %182 = getelementptr inbounds nuw %struct.AF_WidthRec_, ptr %179, i64 %181
  %183 = getelementptr inbounds nuw %struct.AF_WidthRec_, ptr %182, i32 0, i32 0
  %184 = load i64, ptr %183, align 8, !tbaa !204
  %185 = icmp ne i64 %184, 0
  br i1 %185, label %186, label %196

186:                                              ; preds = %178
  %187 = load ptr, ptr %5, align 8, !tbaa !287
  %188 = load i32, ptr %9, align 4, !tbaa !43
  %189 = add i32 %188, 1
  store i32 %189, ptr %9, align 4, !tbaa !43
  %190 = zext i32 %188 to i64
  %191 = getelementptr inbounds nuw %struct.AF_WidthRec_, ptr %187, i64 %190
  %192 = load ptr, ptr %5, align 8, !tbaa !287
  %193 = load i32, ptr %7, align 4, !tbaa !43
  %194 = zext i32 %193 to i64
  %195 = getelementptr inbounds nuw %struct.AF_WidthRec_, ptr %192, i64 %194
  call void @llvm.memcpy.p0.p0.i64(ptr align 8 %191, ptr align 8 %195, i64 24, i1 false), !tbaa.struct !293
  br label %196

196:                                              ; preds = %186, %178
  br label %197

197:                                              ; preds = %196
  %198 = load i32, ptr %7, align 4, !tbaa !43
  %199 = add i32 %198, 1
  store i32 %199, ptr %7, align 4, !tbaa !43
  br label %173, !llvm.loop !298

200:                                              ; preds = %173
  %201 = load i32, ptr %9, align 4, !tbaa !43
  %202 = load ptr, ptr %4, align 8, !tbaa !135
  store i32 %201, ptr %202, align 4, !tbaa !43
  store i32 0, ptr %13, align 4
  br label %203

203:                                              ; preds = %200, %17
  call void @llvm.lifetime.end.p0(i64 24, ptr %12) #10
  call void @llvm.lifetime.end.p0(i64 8, ptr %11) #10
  call void @llvm.lifetime.end.p0(i64 8, ptr %10) #10
  call void @llvm.lifetime.end.p0(i64 4, ptr %9) #10
  call void @llvm.lifetime.end.p0(i64 4, ptr %8) #10
  call void @llvm.lifetime.end.p0(i64 4, ptr %7) #10
  %204 = load i32, ptr %13, align 4
  switch i32 %204, label %206 [
    i32 0, label %205
    i32 1, label %205
  ]

205:                                              ; preds = %203, %203
  ret void

206:                                              ; preds = %203
  unreachable
}