; Function Attrs: nofree norecurse nosync nounwind memory(argmem: readwrite) uwtable
define internal fastcc void @af_sort_and_quantize_widths(ptr noundef nonnull captures(none) %0, ptr noundef captures(none) %1, i64 noundef range(i64 0, 42949673) %2) unnamed_addr #9 {
  %4 = alloca %struct.AF_WidthRec_, align 8
  call void @llvm.lifetime.start.p0(i64 24, ptr nonnull %4)
  %5 = load i32, ptr %0, align 4, !tbaa !43
  switch i32 %5, label %.lr.ph.preheader [
    i32 1, label %54
    i32 0, label %._crit_edge101
  ]

.lr.ph.preheader:                                 ; preds = %3, %._crit_edge
  %.07084 = phi i32 [ %14, %._crit_edge ], [ 1, %3 ]
  br label %.lr.ph

.lr.ph:                                           ; preds = %.lr.ph.preheader, %13
  %.06882 = phi i32 [ %9, %13 ], [ %.07084, %.lr.ph.preheader ]
  %6 = zext i32 %.06882 to i64
  %7 = getelementptr inbounds nuw %struct.AF_WidthRec_, ptr %1, i64 %6
  %8 = load i64, ptr %7, align 8, !tbaa !147
  %9 = add i32 %.06882, -1
  %10 = zext i32 %9 to i64
  %11 = getelementptr inbounds nuw %struct.AF_WidthRec_, ptr %1, i64 %10
  %12 = load i64, ptr %11, align 8, !tbaa !147
  %.not77 = icmp slt i64 %8, %12
  br i1 %.not77, label %13, label %._crit_edge

13:                                               ; preds = %.lr.ph
  call void @llvm.memcpy.p0.p0.i64(ptr noundef nonnull align 8 dereferenceable(24) %4, ptr noundef nonnull align 8 dereferenceable(24) %7, i64 24, i1 false), !tbaa.struct !367
  tail call void @llvm.memcpy.p0.p0.i64(ptr noundef nonnull align 8 dereferenceable(24) %7, ptr noundef nonnull align 8 dereferenceable(24) %11, i64 24, i1 false), !tbaa.struct !367
  call void @llvm.memcpy.p0.p0.i64(ptr noundef nonnull align 8 dereferenceable(24) %11, ptr noundef nonnull align 8 dereferenceable(24) %4, i64 24, i1 false), !tbaa.struct !367
  %.not76 = icmp eq i32 %9, 0
  br i1 %.not76, label %._crit_edge, label %.lr.ph, !llvm.loop !368

._crit_edge:                                      ; preds = %.lr.ph, %13
  %.pre = load i32, ptr %0, align 4, !tbaa !43
  %14 = add nuw i32 %.07084, 1
  %15 = icmp ult i32 %14, %.pre
  br i1 %15, label %.lr.ph.preheader, label %._crit_edge85, !llvm.loop !369

._crit_edge85:                                    ; preds = %._crit_edge
  %16 = icmp ugt i32 %.pre, 1
  br i1 %16, label %.lr.ph97, label %._crit_edge101

.lr.ph97:                                         ; preds = %._crit_edge85
  %17 = load i64, ptr %1, align 8, !tbaa !147
  %18 = add i32 %.pre, -1
  br label %19

19:                                               ; preds = %.lr.ph97, %40
  %.06595 = phi i64 [ %17, %.lr.ph97 ], [ %.1, %40 ]
  %.06694 = phi i32 [ 0, %.lr.ph97 ], [ %.167, %40 ]
  %.17193 = phi i32 [ 1, %.lr.ph97 ], [ %41, %40 ]
  %20 = zext i32 %.17193 to i64
  %21 = getelementptr inbounds nuw %struct.AF_WidthRec_, ptr %1, i64 %20
  %22 = load i64, ptr %21, align 8, !tbaa !147
  %23 = sub nsw i64 %22, %.06595
  %24 = icmp sgt i64 %23, %2
  %25 = icmp eq i32 %.17193, %18
  %or.cond = or i1 %25, %24
  br i1 %or.cond, label %26, label %40

26:                                               ; preds = %19
  %not. = xor i1 %24, true
  %narrow = and i1 %25, %not.
  %spec.select = zext i1 %narrow to i32
  %.272 = add nuw i32 %.17193, %spec.select
  %27 = icmp ult i32 %.06694, %.272
  %28 = zext i32 %.06694 to i64
  br i1 %27, label %.lr.ph89.preheader, label %._crit_edge90

.lr.ph89.preheader:                               ; preds = %26
  %wide.trip.count = zext i32 %.272 to i64
  br label %.lr.ph89

.lr.ph89:                                         ; preds = %.lr.ph89.preheader, %.lr.ph89
  %indvars.iv = phi i64 [ %28, %.lr.ph89.preheader ], [ %indvars.iv.next, %.lr.ph89 ]
  %.087 = phi i64 [ 0, %.lr.ph89.preheader ], [ %31, %.lr.ph89 ]
  %29 = getelementptr inbounds nuw %struct.AF_WidthRec_, ptr %1, i64 %indvars.iv
  %30 = load i64, ptr %29, align 8, !tbaa !147
  %31 = add nsw i64 %30, %.087
  store i64 0, ptr %29, align 8, !tbaa !147
  %indvars.iv.next = add nuw nsw i64 %indvars.iv, 1
  %exitcond.not = icmp eq i64 %indvars.iv.next, %wide.trip.count
  br i1 %exitcond.not, label %._crit_edge90, label %.lr.ph89, !llvm.loop !370

._crit_edge90:                                    ; preds = %.lr.ph89, %26
  %.pre-phi = phi i64 [ %28, %26 ], [ %wide.trip.count, %.lr.ph89 ]
  %.0.lcssa = phi i64 [ 0, %26 ], [ %31, %.lr.ph89 ]
  %32 = sdiv i64 %.0.lcssa, %.pre-phi
  %33 = getelementptr inbounds nuw %struct.AF_WidthRec_, ptr %1, i64 %28
  store i64 %32, ptr %33, align 8, !tbaa !147
  %34 = icmp ult i32 %.272, %18
  br i1 %34, label %35, label %40

35:                                               ; preds = %._crit_edge90
  %36 = add nuw i32 %.272, 1
  %37 = zext i32 %36 to i64
  %38 = getelementptr inbounds nuw %struct.AF_WidthRec_, ptr %1, i64 %37
  %39 = load i64, ptr %38, align 8, !tbaa !147
  br label %40

40:                                               ; preds = %19, %35, %._crit_edge90
  %.373 = phi i32 [ %.272, %35 ], [ %.272, %._crit_edge90 ], [ %.17193, %19 ]
  %.167 = phi i32 [ %36, %35 ], [ %.06694, %._crit_edge90 ], [ %.06694, %19 ]
  %.1 = phi i64 [ %39, %35 ], [ %.06595, %._crit_edge90 ], [ %.06595, %19 ]
  %41 = add i32 %.373, 1
  %42 = icmp ult i32 %41, %.pre
  br i1 %42, label %19, label %.lr.ph100, !llvm.loop !371

.lr.ph100:                                        ; preds = %40, %50
  %43 = phi i32 [ %51, %50 ], [ %.pre, %40 ]
  %indvars.iv107 = phi i64 [ %indvars.iv.next108, %50 ], [ 1, %40 ]
  %.299 = phi i32 [ %.3, %50 ], [ 1, %40 ]
  %44 = getelementptr inbounds nuw %struct.AF_WidthRec_, ptr %1, i64 %indvars.iv107
  %45 = load i64, ptr %44, align 8, !tbaa !147
  %.not = icmp eq i64 %45, 0
  br i1 %.not, label %50, label %46

46:                                               ; preds = %.lr.ph100
  %47 = add i32 %.299, 1
  %48 = zext i32 %.299 to i64
  %49 = getelementptr inbounds nuw %struct.AF_WidthRec_, ptr %1, i64 %48
  tail call void @llvm.memcpy.p0.p0.i64(ptr noundef nonnull align 8 dereferenceable(24) %49, ptr noundef nonnull align 8 dereferenceable(24) %44, i64 24, i1 false), !tbaa.struct !367
  %.pre110 = load i32, ptr %0, align 4, !tbaa !43
  br label %50

50:                                               ; preds = %.lr.ph100, %46
  %51 = phi i32 [ %.pre110, %46 ], [ %43, %.lr.ph100 ]
  %.3 = phi i32 [ %47, %46 ], [ %.299, %.lr.ph100 ]
  %indvars.iv.next108 = add nuw nsw i64 %indvars.iv107, 1
  %52 = zext i32 %51 to i64
  %53 = icmp samesign ult i64 %indvars.iv.next108, %52
  br i1 %53, label %.lr.ph100, label %._crit_edge101, !llvm.loop !372

._crit_edge101:                                   ; preds = %50, %3, %._crit_edge85
  %.2.lcssa = phi i32 [ 1, %._crit_edge85 ], [ 1, %3 ], [ %.3, %50 ]
  store i32 %.2.lcssa, ptr %0, align 4, !tbaa !43
  br label %54

54:                                               ; preds = %3, %._crit_edge101
  call void @llvm.lifetime.end.p0(i64 24, ptr nonnull %4)
  ret void
}